target datalayout = "e-m:e-p270:32:32-p271:32:32-p272:64:64-i64:64-i128:128-f80:128-n8:16:32:64-S128"
target triple = "x86_64-unknown-linux-gnu"

%"class.pbrt::Point2" = type { %"class.pbrt::Tuple2" }
%"class.pbrt::Tuple2" = type { float, float }
%"class.pbrt::Vector2" = type { %"class.pbrt::Tuple2.14" }
%"class.pbrt::Tuple2.14" = type { float, float }

; Function Attrs: mustprogress nounwind uwtable
define linkonce_odr dso_local void @_ZN4pbrt6Tuple2INS_7Vector2EfEC2Eff(ptr noundef nonnull align 4 dereferenceable(8) %this, float noundef %x, float noundef %y) unnamed_addr #5 comdat align 2 {
entry:
  %this.addr = alloca ptr, align 8
  %x.addr = alloca float, align 4
  %y.addr = alloca float, align 4
  store ptr %this, ptr %this.addr, align 8
  store float %x, ptr %x.addr, align 4
  store float %y, ptr %y.addr, align 4
  %this1 = load ptr, ptr %this.addr, align 8
  %x2 = getelementptr inbounds %"class.pbrt::Tuple2.14", ptr %this1, i32 0, i32 0
  %0 = load float, ptr %x.addr, align 4
  store float %0, ptr %x2, align 4
  %y3 = getelementptr inbounds %"class.pbrt::Tuple2.14", ptr %this1, i32 0, i32 1
  %1 = load float, ptr %y.addr, align 4
  store float %1, ptr %y3, align 4
  br label %do.body

do.body:                                          ; preds = %entry
  br label %do.end

do.end:                                           ; preds = %do.body
  ret void
}

; Function Attrs: mustprogress uwtable
define linkonce_odr dso_local void @_ZN4pbrt7Vector2IfEC2Eff(ptr noundef nonnull align 4 dereferenceable(8) %this, float noundef %x, float noundef %y) unnamed_addr #1 comdat align 2 {
entry:
  %this.addr = alloca ptr, align 8
  %x.addr = alloca float, align 4
  %y.addr = alloca float, align 4
  store ptr %this, ptr %this.addr, align 8
  store float %x, ptr %x.addr, align 4
  store float %y, ptr %y.addr, align 4
  %this1 = load ptr, ptr %this.addr, align 8
  %0 = load float, ptr %x.addr, align 4
  %1 = load float, ptr %y.addr, align 4
  call void @_ZN4pbrt6Tuple2INS_7Vector2EfEC2Eff(ptr noundef nonnull align 4 dereferenceable(8) %this1, float noundef %0, float noundef %1)
  ret void
}

; Function Attrs: mustprogress nounwind uwtable
define linkonce_odr dso_local void @_ZN4pbrt6Tuple2INS_6Point2EfEC2Eff(ptr noundef nonnull align 4 dereferenceable(8) %this, float noundef %x, float noundef %y) unnamed_addr #5 comdat align 2 {
entry:
  %this.addr = alloca ptr, align 8
  %x.addr = alloca float, align 4
  %y.addr = alloca float, align 4
  store ptr %this, ptr %this.addr, align 8
  store float %x, ptr %x.addr, align 4
  store float %y, ptr %y.addr, align 4
  %this1 = load ptr, ptr %this.addr, align 8
  %x2 = getelementptr inbounds %"class.pbrt::Tuple2", ptr %this1, i32 0, i32 0
  %0 = load float, ptr %x.addr, align 4
  store float %0, ptr %x2, align 4
  %y3 = getelementptr inbounds %"class.pbrt::Tuple2", ptr %this1, i32 0, i32 1
  %1 = load float, ptr %y.addr, align 4
  store float %1, ptr %y3, align 4
  br label %do.body

do.body:                                          ; preds = %entry
  br label %do.end

do.end:                                           ; preds = %do.body
  ret void
}

; Function Attrs: mustprogress nounwind uwtable
define linkonce_odr dso_local noundef float @_ZSt5floorf(float noundef %__x) #5 comdat {
entry:
  %__x.addr = alloca float, align 4
  store float %__x, ptr %__x.addr, align 4
  %0 = load float, ptr %__x.addr, align 4
  %1 = call float @llvm.floor.f32(float %0)
  ret float %1
}

; Function Attrs: mustprogress nounwind uwtable
define linkonce_odr dso_local noundef float @_ZN4pbrt3SqrIfEET_S1_(float noundef %v) #5 comdat {
entry:
  %v.addr = alloca float, align 4
  store float %v, ptr %v.addr, align 4
  %0 = load float, ptr %v.addr, align 4
  %1 = load float, ptr %v.addr, align 4
  %mul = fmul float %0, %1
  ret float %mul
}

; Function Attrs: mustprogress nounwind uwtable
define linkonce_odr dso_local noundef float @_ZN4pbrt13LengthSquaredIfEENS_12_GLOBAL__N_111TupleLengthIT_E4typeENS_7Vector2IS3_EE(<2 x float> %v.coerce) #8 comdat {
entry:
  %v = alloca %"class.pbrt::Vector2", align 4
  %coerce.dive = getelementptr inbounds %"class.pbrt::Vector2", ptr %v, i32 0, i32 0
  store <2 x float> %v.coerce, ptr %coerce.dive, align 4
  %x = getelementptr inbounds %"class.pbrt::Tuple2.14", ptr %v, i32 0, i32 0
  %0 = load float, ptr %x, align 4
  %call = call noundef float @_ZN4pbrt3SqrIfEET_S1_(float noundef %0)
  %y = getelementptr inbounds %"class.pbrt::Tuple2.14", ptr %v, i32 0, i32 1
  %1 = load float, ptr %y, align 4
  %call1 = call noundef float @_ZN4pbrt3SqrIfEET_S1_(float noundef %1)
  %add = fadd float %call, %call1
  ret float %add
}

; Function Attrs: mustprogress uwtable
define linkonce_odr dso_local <2 x float> @_ZNK4pbrt6Point2IfEmiIfEENS_7Vector2IDTmitlfEtlT_EEEENS0_IS4_EE(ptr noundef nonnull align 4 dereferenceable(8) %this, <2 x float> %p.coerce) #2 comdat align 2 {
entry:
  %retval = alloca %"class.pbrt::Vector2", align 4
  %p = alloca %"class.pbrt::Point2", align 4
  %this.addr = alloca ptr, align 8
  %coerce.dive = getelementptr inbounds %"class.pbrt::Point2", ptr %p, i32 0, i32 0
  store <2 x float> %p.coerce, ptr %coerce.dive, align 4
  store ptr %this, ptr %this.addr, align 8
  %this1 = load ptr, ptr %this.addr, align 8
  br label %do.body

do.body:                                          ; preds = %entry
  br label %do.end

do.end:                                           ; preds = %do.body
  %x = getelementptr inbounds %"class.pbrt::Tuple2", ptr %this1, i32 0, i32 0
  %0 = load float, ptr %x, align 4
  %x2 = getelementptr inbounds %"class.pbrt::Tuple2", ptr %p, i32 0, i32 0
  %1 = load float, ptr %x2, align 4
  %sub = fsub float %0, %1
  %y = getelementptr inbounds %"class.pbrt::Tuple2", ptr %this1, i32 0, i32 1
  %2 = load float, ptr %y, align 4
  %y3 = getelementptr inbounds %"class.pbrt::Tuple2", ptr %p, i32 0, i32 1
  %3 = load float, ptr %y3, align 4
  %sub4 = fsub float %2, %3
  call void @_ZN4pbrt7Vector2IfEC2Eff(ptr noundef nonnull align 4 dereferenceable(8) %retval, float noundef %sub, float noundef %sub4)
  %coerce.dive5 = getelementptr inbounds %"class.pbrt::Vector2", ptr %retval, i32 0, i32 0
  %4 = load <2 x float>, ptr %coerce.dive5, align 4
  ret <2 x float> %4
}

; Function Attrs: mustprogress uwtable
define linkonce_odr dso_local void @_ZN4pbrt6Point2IfEC2Eff(ptr noundef nonnull align 4 dereferenceable(8) %this, float noundef %x, float noundef %y) unnamed_addr #1 comdat align 2 {
entry:
  %this.addr = alloca ptr, align 8
  %x.addr = alloca float, align 4
  %y.addr = alloca float, align 4
  store ptr %this, ptr %this.addr, align 8
  store float %x, ptr %x.addr, align 4
  store float %y, ptr %y.addr, align 4
  %this1 = load ptr, ptr %this.addr, align 8
  %0 = load float, ptr %x.addr, align 4
  %1 = load float, ptr %y.addr, align 4
  call void @_ZN4pbrt6Tuple2INS_6Point2EfEC2Eff(ptr noundef nonnull align 4 dereferenceable(8) %this1, float noundef %0, float noundef %1)
  ret void
}

; Function Attrs: mustprogress uwtable
define linkonce_odr dso_local noundef float @_ZN4pstd5floorEf(float noundef %arg) #1 comdat {
entry:
  %arg.addr = alloca float, align 4
  store float %arg, ptr %arg.addr, align 4
  %0 = load float, ptr %arg.addr, align 4
  %call = call noundef float @_ZSt5floorf(float noundef %0)
  ret float %call
}

; Function Attrs: mustprogress nounwind uwtable
define linkonce_odr dso_local noundef nonnull align 4 dereferenceable(4) ptr @_ZN4pbrt6Tuple2INS_6Point2EfEixEi(ptr noundef nonnull align 4 dereferenceable(8) %this, i32 noundef %i) #5 comdat align 2 {
entry:
  %this.addr = alloca ptr, align 8
  %i.addr = alloca i32, align 4
  store ptr %this, ptr %this.addr, align 8
  store i32 %i, ptr %i.addr, align 4
  %this1 = load ptr, ptr %this.addr, align 8
  br label %do.body

do.body:                                          ; preds = %entry
  br label %do.end

do.end:                                           ; preds = %do.body
  %0 = load i32, ptr %i.addr, align 4
  %cmp = icmp eq i32 %0, 0
  br i1 %cmp, label %cond.true, label %cond.false

cond.true:                                        ; preds = %do.end
  %x = getelementptr inbounds %"class.pbrt::Tuple2", ptr %this1, i32 0, i32 0
  br label %cond.end

cond.false:                                       ; preds = %do.end
  %y = getelementptr inbounds %"class.pbrt::Tuple2", ptr %this1, i32 0, i32 1
  br label %cond.end

cond.end:                                         ; preds = %cond.false, %cond.true
  %cond-lvalue = phi ptr [ %x, %cond.true ], [ %y, %cond.false ]
  ret ptr %cond-lvalue
}

; Function Attrs: mustprogress uwtable
define dso_local noundef zeroext i1 @_ZN4pbrt14InsidePolkaDotENS_6Point2IfEE(<2 x float> %st.coerce) #2 {
entry:
  %retval = alloca i1, align 1
  %st = alloca %"class.pbrt::Point2", align 4
  %sCell = alloca i32, align 4
  %tCell = alloca i32, align 4
  %radius = alloca float, align 4
  %maxShift = alloca float, align 4
  %sCenter = alloca float, align 4
  %tCenter = alloca float, align 4
  %dst = alloca %"class.pbrt::Vector2", align 4
  %agg.tmp = alloca %"class.pbrt::Point2", align 4
  %agg.tmp29 = alloca %"class.pbrt::Vector2", align 4
  %coerce.dive = getelementptr inbounds %"class.pbrt::Point2", ptr %st, i32 0, i32 0
  store <2 x float> %st.coerce, ptr %coerce.dive, align 4
  %call = call noundef nonnull align 4 dereferenceable(4) ptr @_ZN4pbrt6Tuple2INS_6Point2EfEixEi(ptr noundef nonnull align 4 dereferenceable(8) %st, i32 noundef 0)
  %0 = load float, ptr %call, align 4
  %add = fadd float %0, 5.000000e-01
  %call1 = call noundef float @_ZN4pstd5floorEf(float noundef %add)
  %conv = fptosi float %call1 to i32
  store i32 %conv, ptr %sCell, align 4
  %call2 = call noundef nonnull align 4 dereferenceable(4) ptr @_ZN4pbrt6Tuple2INS_6Point2EfEixEi(ptr noundef nonnull align 4 dereferenceable(8) %st, i32 noundef 1)
  %1 = load float, ptr %call2, align 4
  %add3 = fadd float %1, 5.000000e-01
  %call4 = call noundef float @_ZN4pstd5floorEf(float noundef %add3)
  %conv5 = fptosi float %call4 to i32
  store i32 %conv5, ptr %tCell, align 4
  %2 = load i32, ptr %sCell, align 4
  %conv6 = sitofp i32 %2 to float
  %add7 = fadd float %conv6, 5.000000e-01
  %3 = load i32, ptr %tCell, align 4
  %conv8 = sitofp i32 %3 to float
  %add9 = fadd float %conv8, 5.000000e-01
  %call10 = call noundef float @_ZN4pbrt5NoiseEfff(float noundef %add7, float noundef %add9, float noundef 5.000000e-01)
  %cmp = fcmp ogt float %call10, 0.000000e+00
  br i1 %cmp, label %if.then, label %if.end35

if.then:                                          ; preds = %entry
  store float 0x3FD6666660000000, ptr %radius, align 4
  %4 = load float, ptr %radius, align 4
  %sub = fsub float 5.000000e-01, %4
  store float %sub, ptr %maxShift, align 4
  %5 = load i32, ptr %sCell, align 4
  %conv11 = sitofp i32 %5 to float
  %6 = load float, ptr %maxShift, align 4
  %7 = load i32, ptr %sCell, align 4
  %conv12 = sitofp i32 %7 to float
  %add13 = fadd float %conv12, 1.500000e+00
  %8 = load i32, ptr %tCell, align 4
  %conv14 = sitofp i32 %8 to float
  %add15 = fadd float %conv14, 0x4006666660000000
  %call16 = call noundef float @_ZN4pbrt5NoiseEfff(float noundef %add13, float noundef %add15, float noundef 5.000000e-01)
  %mul = fmul float %6, %call16
  %add17 = fadd float %conv11, %mul
  store float %add17, ptr %sCenter, align 4
  %9 = load i32, ptr %tCell, align 4
  %conv18 = sitofp i32 %9 to float
  %10 = load float, ptr %maxShift, align 4
  %11 = load i32, ptr %sCell, align 4
  %conv19 = sitofp i32 %11 to float
  %add20 = fadd float %conv19, 4.500000e+00
  %12 = load i32, ptr %tCell, align 4
  %conv21 = sitofp i32 %12 to float
  %add22 = fadd float %conv21, 0x40239999A0000000
  %call23 = call noundef float @_ZN4pbrt5NoiseEfff(float noundef %add20, float noundef %add22, float noundef 5.000000e-01)
  %mul24 = fmul float %10, %call23
  %add25 = fadd float %conv18, %mul24
  store float %add25, ptr %tCenter, align 4
  %13 = load float, ptr %sCenter, align 4
  %14 = load float, ptr %tCenter, align 4
  call void @_ZN4pbrt6Point2IfEC2Eff(ptr noundef nonnull align 4 dereferenceable(8) %agg.tmp, float noundef %13, float noundef %14)
  %coerce.dive26 = getelementptr inbounds %"class.pbrt::Point2", ptr %agg.tmp, i32 0, i32 0
  %15 = load <2 x float>, ptr %coerce.dive26, align 4
  %call27 = call <2 x float> @_ZNK4pbrt6Point2IfEmiIfEENS_7Vector2IDTmitlfEtlT_EEEENS0_IS4_EE(ptr noundef nonnull align 4 dereferenceable(8) %st, <2 x float> %15)
  %coerce.dive28 = getelementptr inbounds %"class.pbrt::Vector2", ptr %dst, i32 0, i32 0
  store <2 x float> %call27, ptr %coerce.dive28, align 4
  call void @llvm.memcpy.p0.p0.i64(ptr align 4 %agg.tmp29, ptr align 4 %dst, i64 8, i1 false)
  %coerce.dive30 = getelementptr inbounds %"class.pbrt::Vector2", ptr %agg.tmp29, i32 0, i32 0
  %16 = load <2 x float>, ptr %coerce.dive30, align 4
  %call31 = call noundef float @_ZN4pbrt13LengthSquaredIfEENS_12_GLOBAL__N_111TupleLengthIT_E4typeENS_7Vector2IS3_EE(<2 x float> %16)
  %17 = load float, ptr %radius, align 4
  %call32 = call noundef float @_ZN4pbrt3SqrIfEET_S1_(float noundef %17)
  %cmp33 = fcmp olt float %call31, %call32
  br i1 %cmp33, label %if.then34, label %if.end

if.then34:                                        ; preds = %if.then
  store i1 true, ptr %retval, align 1
  br label %return

if.end:                                           ; preds = %if.then
  br label %if.end35

if.end35:                                         ; preds = %if.end, %entry
  store i1 false, ptr %retval, align 1
  br label %return

return:                                           ; preds = %if.end35, %if.then34
  %18 = load i1, ptr %retval, align 1
  ret i1 %18
}