; Function Attrs: mustprogress uwtable
define dso_local noundef zeroext i1 @_ZN4pbrt14InsidePolkaDotENS_6Point2IfEE(<2 x float> %st.coerce) local_unnamed_addr #1 {
entry:
  %0 = fadd <2 x float> %st.coerce, <float 5.000000e-01, float 5.000000e-01>
  %1 = tail call <2 x float> @llvm.floor.v2f32(<2 x float> %0)
  %2 = fptosi <2 x float> %1 to <2 x i32>
  %3 = sitofp <2 x i32> %2 to <2 x float>
  %4 = extractelement <2 x float> %3, i64 0
  %add7 = fadd float %4, 5.000000e-01
  %5 = extractelement <2 x float> %3, i64 1
  %add9 = fadd float %5, 5.000000e-01
  %call10 = tail call noundef float @_ZN4pbrt5NoiseEfff(float noundef %add7, float noundef %add9, float noundef 5.000000e-01)
  %cmp = fcmp ogt float %call10, 0.000000e+00
  br i1 %cmp, label %if.then, label %if.end35

if.then:                                          ; preds = %entry
  %add13 = fadd float %4, 1.500000e+00
  %add15 = fadd float %5, 0x4006666660000000
  %call16 = tail call noundef float @_ZN4pbrt5NoiseEfff(float noundef %add13, float noundef %add15, float noundef 5.000000e-01)
  %add20 = fadd float %4, 4.500000e+00
  %add22 = fadd float %5, 0x40239999A0000000
  %call23 = tail call noundef float @_ZN4pbrt5NoiseEfff(float noundef %add20, float noundef %add22, float noundef 5.000000e-01)
  %6 = insertelement <2 x float> poison, float %call16, i64 0
  %7 = insertelement <2 x float> %6, float %call23, i64 1
  %8 = fmul <2 x float> %7, <float 0x3FC3333340000000, float 0x3FC3333340000000>
  %9 = fadd <2 x float> %8, %3
  %10 = fsub <2 x float> %st.coerce, %9
  %11 = fmul <2 x float> %10, %10
  %shift = shufflevector <2 x float> %11, <2 x float> poison, <2 x i32> <i32 1, i32 poison>
  %12 = fadd <2 x float> %11, %shift
  %add.i = extractelement <2 x float> %12, i64 0
  %cmp33 = fcmp olt float %add.i, 0x3FBF5C28E0000000
  br i1 %cmp33, label %return, label %if.end35

if.end35:                                         ; preds = %if.then, %entry
  br label %return

return:                                           ; preds = %if.then, %if.end35
  %retval.0 = phi i1 [ false, %if.end35 ], [ true, %if.then ]
  ret i1 %retval.0
}